; Function Attrs: mustprogress nofree norecurse nosync nounwind willreturn memory(read, inaccessiblemem: none) uwtable
define internal range(i32 -1, 2) i32 @x_cmp(ptr noundef readonly captures(none) %0, ptr noundef readonly captures(none) %1) #5 {
  %3 = load ptr, ptr %0, align 8
  %4 = load double, ptr %3, align 8
  %5 = load ptr, ptr %1, align 8
  %6 = load double, ptr %5, align 8
  %7 = fcmp oeq double %4, %6
  %8 = fcmp ogt double %4, %6
  %9 = select i1 %8, i32 1, i32 -1
  %.0 = select i1 %7, i32 0, i32 %9
  ret i32 %.0
}